target datalayout = "e-m:e-p270:32:32-p271:32:32-p272:64:64-i64:64-i128:128-f80:128-n8:16:32:64-S128"
target triple = "x86_64-pc-linux-gnu"

%struct.PNGReadContext = type { ptr, i64, i64 }

@.str.3 = private unnamed_addr constant [42 x i8] c"ReadFunc: invalid read length (overflow)!\00", align 1

; Function Attrs: nounwind uwtable
define internal void @ReadFunc(ptr noundef %0, ptr noundef %1, i64 noundef %2) #0 {
  %4 = alloca ptr, align 8
  %5 = alloca ptr, align 8
  %6 = alloca i64, align 8
  %7 = alloca ptr, align 8
  store ptr %0, ptr %4, align 8, !tbaa !17
  store ptr %1, ptr %5, align 8, !tbaa !4
  store i64 %2, ptr %6, align 8, !tbaa !9
  call void @llvm.lifetime.start.p0(i64 8, ptr %7) #11
  %8 = load ptr, ptr %4, align 8, !tbaa !17
  %9 = call ptr @png_get_io_ptr(ptr noundef %8)
  store ptr %9, ptr %7, align 8, !tbaa !36
  %10 = load ptr, ptr %7, align 8, !tbaa !36
  %11 = getelementptr inbounds nuw %struct.PNGReadContext, ptr %10, i32 0, i32 1
  %12 = load i64, ptr %11, align 8, !tbaa !23
  %13 = load ptr, ptr %7, align 8, !tbaa !36
  %14 = getelementptr inbounds nuw %struct.PNGReadContext, ptr %13, i32 0, i32 2
  %15 = load i64, ptr %14, align 8, !tbaa !37
  %16 = sub i64 %12, %15
  %17 = load i64, ptr %6, align 8, !tbaa !9
  %18 = icmp ult i64 %16, %17
  br i1 %18, label %19, label %21

19:                                               ; preds = %3
  %20 = load ptr, ptr %4, align 8, !tbaa !17
  call void @png_error(ptr noundef %20, ptr noundef @.str.3) #15
  unreachable

21:                                               ; preds = %3
  %22 = load ptr, ptr %5, align 8, !tbaa !4
  %23 = load ptr, ptr %7, align 8, !tbaa !36
  %24 = getelementptr inbounds nuw %struct.PNGReadContext, ptr %23, i32 0, i32 0
  %25 = load ptr, ptr %24, align 8, !tbaa !21
  %26 = load ptr, ptr %7, align 8, !tbaa !36
  %27 = getelementptr inbounds nuw %struct.PNGReadContext, ptr %26, i32 0, i32 2
  %28 = load i64, ptr %27, align 8, !tbaa !37
  %29 = getelementptr inbounds nuw i8, ptr %25, i64 %28
  %30 = load i64, ptr %6, align 8, !tbaa !9
  call void @llvm.memcpy.p0.p0.i64(ptr align 1 %22, ptr align 1 %29, i64 %30, i1 false)
  %31 = load i64, ptr %6, align 8, !tbaa !9
  %32 = load ptr, ptr %7, align 8, !tbaa !36
  %33 = getelementptr inbounds nuw %struct.PNGReadContext, ptr %32, i32 0, i32 2
  %34 = load i64, ptr %33, align 8, !tbaa !37
  %35 = add i64 %34, %31
  store i64 %35, ptr %33, align 8, !tbaa !37
  call void @llvm.lifetime.end.p0(i64 8, ptr %7) #11
  ret void
}