; Function Attrs: nounwind uwtable
define internal void @ReadFunc(ptr noundef %0, ptr noundef writeonly captures(none) %1, i64 noundef %2) #0 {
  %4 = tail call ptr @png_get_io_ptr(ptr noundef %0) #15
  %5 = getelementptr inbounds nuw i8, ptr %4, i64 8
  %6 = load i64, ptr %5, align 8, !tbaa !18
  %7 = getelementptr inbounds nuw i8, ptr %4, i64 16
  %8 = load i64, ptr %7, align 8, !tbaa !33
  %9 = sub i64 %6, %8
  %10 = icmp ult i64 %9, %2
  br i1 %10, label %11, label %12

11:                                               ; preds = %3
  tail call void @png_error(ptr noundef %0, ptr noundef nonnull @.str.3) #20
  unreachable

12:                                               ; preds = %3
  %13 = load ptr, ptr %4, align 8, !tbaa !15
  %14 = getelementptr inbounds nuw i8, ptr %13, i64 %8
  tail call void @llvm.memcpy.p0.p0.i64(ptr align 1 %1, ptr align 1 %14, i64 %2, i1 false)
  %15 = load i64, ptr %7, align 8, !tbaa !33
  %16 = add i64 %15, %2
  store i64 %16, ptr %7, align 8, !tbaa !33
  ret void
}